Certificate:
    Data:
        Version: 3 (0x2)
        Serial Number:
            fa:d7:92:e4:53:ec:c1:85
    Signature Algorithm: sha256WithRSAEncryption
        Issuer: C=ZZ, O=Fake Org, OU=Hosts, CN=Fake Org Fake CA - 2d7ba234
        Validity
            Not Before: Jan 21 14:57:20 2019 GMT
            Not After : Jan 20 14:57:20 2022 GMT
        Subject: C=ZZ, O=Fake Org, OU=Hosts, CN=Fake Org Fake CA - 2d7ba234
        Subject Public Key Info:
            Public Key Algorithm: rsaEncryption
                Public-Key: (2048 bit)
                Modulus:
                    00:9f:79:99:48:95:e1:17:d9:27:28:b1:5a:c0:6b:
                    58:6c:19:3d:dc:d5:24:55:a8:29:b8:60:1e:98:3a:
                    00:51:55:00:c8:75:a9:89:a1:ee:ab:a0:4f:84:24:
                    3b:76:11:9a:9f:69:e7:67:74:fb:27:0c:7b:2c:42:
                    35:0b:eb:1d:21:f6:7f:73:6f:cd:9f:32:2e:a7:d3:
                    a2:30:d6:c9:91:eb:6a:d2:96:a0:ad:26:56:fd:9f:
                    27:95:05:1b:0c:8e:6e:80:85:39:f6:59:75:ef:bd:
                    ff:10:06:4b:b5:71:a0:ea:2b:c8:e8:95:d0:67:d6:
                    f2:28:c7:5c:9d:ab:e9:b6:15:85:c4:df:3d:ec:fa:
                    8d:9b:d5:ac:2d:14:ee:8a:b5:42:01:bd:47:37:cf:
                    8c:68:06:49:09:12:e1:b9:06:ff:83:3c:01:72:17:
                    70:1e:1b:18:ba:90:ae:7f:9f:a6:3b:d6:b8:36:fe:
                    f4:cb:9e:3c:75:31:53:b5:65:be:9b:46:b1:72:13:
                    18:a7:df:60:15:69:36:57:37:85:02:e8:72:5b:29:
                    47:a9:20:be:5c:be:97:36:a1:5b:81:dc:83:a8:a5:
                    9d:b9:b5:41:8f:32:94:bf:19:76:66:0f:61:a5:a8:
                    15:e3:f4:ad:70:00:b8:c0:a6:da:a4:48:d6:17:4c:
                    8d:d3
                Exponent: 65537 (0x10001)
        X509v3 extensions:
            X509v3 Subject Key Identifier: 
                96:E1:8B:86:5D:D3:76:29:69:5F:C1:15:0D:08:80:58:F7:26:C0:C6
            X509v3 Authority Key Identifier: 
                keyid:96:E1:8B:86:5D:D3:76:29:69:5F:C1:15:0D:08:80:58:F7:26:C0:C6
                DirName:/C=ZZ/O=Fake Org/OU=Hosts/CN=Fake Org Fake CA - 2d7ba234
                serial:FA:D7:92:E4:53:EC:C1:85

            X509v3 Basic Constraints: 
                CA:TRUE
    Signature Algorithm: sha256WithRSAEncryption
         42:b0:91:9b:33:f1:16:0a:49:43:b1:26:80:11:51:6e:b9:e5:
         c1:1b:70:1d:ef:19:48:d5:2c:a9:59:1f:0b:6a:78:df:7d:f0:
         2d:24:3f:92:54:99:cc:0e:39:2d:68:19:f2:d9:5c:d7:cd:f1:
         55:53:f1:ff:78:ee:5c:a8:4a:da:98:fd:af:99:65:c6:21:47:
         3f:f7:d5:04:04:e7:09:f6:e2:35:e7:4e:1a:58:1f:3d:06:69:
         f5:c7:7f:e5:a2:0c:a3:57:a9:93:1c:28:a6:8e:4b:75:ec:10:
         9e:31:69:65:6c:64:ec:54:d6:9f:76:ca:54:3a:3c:62:e4:68:
         29:a3:d3:71:65:c1:6d:6c:99:62:e3:f3:2e:1d:9f:1a:2a:9d:
         8b:15:fc:c9:33:4e:df:30:d7:c2:e5:27:87:03:6b:a8:16:a4:
         fd:d5:da:44:20:c9:a0:80:a7:93:15:79:da:f1:03:75:8c:81:
         c9:f9:f2:15:d6:56:61:bd:b0:90:15:5e:bb:91:e4:f0:52:6f:
         99:e1:02:51:3c:f8:74:42:d9:71:9e:8e:f0:1c:47:be:96:89:
         75:5f:c9:88:88:0a:c2:57:00:9a:e9:79:99:c8:18:44:56:86:
         ed:21:4e:df:49:f4:df:91:f6:76:54:10:83:67:6d:95:8f:31:
         a6:2f:b0:7d
-----BEGIN CERTIFICATE-----
MIID6TCCAtGgAwIBAgIJAPrXkuRT7MGFMA0GCSqGSIb3DQEBCwUAMFYxCzAJBgNV
BAYTAlpaMREwDwYDVQQKEwhGYWtlIE9yZzEOMAwGA1UECxMFSG9zdHMxJDAiBgNV
BAMTG0Zha2UgT3JnIEZha2UgQ0EgLSAyZDdiYTIzNDAeFw0xOTAxMjExNDU3MjBa
Fw0yMjAxMjAxNDU3MjBaMFYxCzAJBgNVBAYTAlpaMREwDwYDVQQKEwhGYWtlIE9y
ZzEOMAwGA1UECxMFSG9zdHMxJDAiBgNVBAMTG0Zha2UgT3JnIEZha2UgQ0EgLSAy
ZDdiYTIzNDCCASIwDQYJKoZIhvcNAQEBBQADggEPADCCAQoCggEBAJ95mUiV4RfZ
JyixWsBrWGwZPdzVJFWoKbhgHpg6AFFVAMh1qYmh7qugT4QkO3YRmp9p52d0+ycM
eyxCNQvrHSH2f3NvzZ8yLqfTojDWyZHratKWoK0mVv2fJ5UFGwyOboCFOfZZde+9
/xAGS7VxoOoryOiV0GfW8ijHXJ2r6bYVhcTfPez6jZvVrC0U7oq1QgG9RzfPjGgG
SQkS4bkG/4M8AXIXcB4bGLqQrn+fpjvWuDb+9MuePHUxU7VlvptGsXITGKffYBVp
Nlc3hQLoclspR6kgvly+lzahW4Hcg6ilnbm1QY8ylL8ZdmYPYaWoFeP0rXAAuMCm
2qRI1hdMjdMCAwEAAaOBuTCBtjAdBgNVHQ4EFgQUluGLhl3TdilpX8EVDQiAWPcm
wMYwgYYGA1UdIwR/MH2AFJbhi4Zd03YpaV/BFQ0IgFj3JsDGoVqkWDBWMQswCQYD
VQQGEwJaWjERMA8GA1UEChMIRmFrZSBPcmcxDjAMBgNVBAsTBUhvc3RzMSQwIgYD
VQQDExtGYWtlIE9yZyBGYWtlIENBIC0gMmQ3YmEyMzSCCQD615LkU+zBhTAMBgNV
HRMEBTADAQH/MA0GCSqGSIb3DQEBCwUAA4IBAQBCsJGbM/EWCklDsSaAEVFuueXB
G3Ad7xlI1SypWR8LanjfffAtJD+SVJnMDjktaBny2VzXzfFVU/H/eO5cqEramP2v
mWXGIUc/99UEBOcJ9uI1504aWB89Bmn1x3/logyjV6mTHCimjkt17BCeMWllbGTs
VNafdspUOjxi5Ggpo9NxZcFtbJli4/MuHZ8aKp2LFfzJM07fMNfC5SeHA2uoFqT9
1dpEIMmggKeTFXna8QN1jIHJ+fIV1lZhvbCQFV67keTwUm+Z4QJRPPh0Qtlxno7w
HEe+lol1X8mIiArCVwCa6XmZyBhEVobtIU7fSfTfkfZ2VBCDZ22VjzGmL7B9
-----END CERTIFICATE-----
Certificate:
    Data:
        Version: 3 (0x2)
        Serial Number:
            cd:3f:3e:14:b3:d7:f3:02
    Signature Algorithm: sha256WithRSAEncryption
        Issuer: C=ZZ, O=Fake Org, OU=Hosts, CN=Fake Org Fake CA - 6399d055
        Validity
            Not Before: Jan 16 19:20:46 2019 GMT
            Not After : Jan 15 19:20:46 2022 GMT
        Subject: C=ZZ, O=Fake Org, OU=Hosts, CN=Fake Org Fake CA - 6399d055
        Subject Public Key Info:
            Public Key Algorithm: rsaEncryption
                Public-Key: (2048 bit)
                Modulus:
                    00:d8:b8:b1:0f:ed:ff:97:38:f7:a4:cc:cb:f0:c5:
                    23:6c:1e:c2:f1:91:a3:22:76:bc:51:ab:43:a8:89:
                    36:63:98:65:38:02:37:44:77:bb:de:a8:51:5d:b6:
                    1c:9f:9a:28:c0:2b:36:01:bc:56:62:15:d2:c8:45:
                    8b:aa:d9:21:2e:91:83:38:a4:78:58:0f:21:54:e1:
                    46:d2:c0:07:52:cc:47:d7:56:bf:35:d3:61:7c:90:
                    0f:6a:ac:d9:fb:0f:da:4e:34:2e:3b:f1:41:4b:da:
                    2f:fe:3d:6a:bc:af:df:42:d4:a2:b2:69:9d:bc:4e:
                    77:f0:01:9f:38:45:d4:29:97:3a:80:78:5e:6b:44:
                    4e:39:0f:b0:f4:c8:06:8f:28:28:40:e3:64:69:e4:
                    95:c9:a0:55:90:17:61:36:6d:6a:43:51:7d:95:1b:
                    c1:5e:5e:8c:3c:ec:ca:81:cf:c4:03:f7:db:72:c7:
                    3f:1a:2a:e1:58:d5:48:ae:d4:b6:78:97:cf:2a:00:
                    ad:6e:a9:af:26:2d:7b:f0:5e:58:48:92:8e:51:e4:
                    41:8b:8e:02:97:89:3c:71:c9:ac:75:04:45:0f:4f:
                    b7:b1:28:ab:f5:f2:45:ce:7e:8b:a6:75:69:98:40:
                    22:d1:78:d1:bb:ee:63:73:19:d0:03:c2:78:8c:c8:
                    90:eb
                Exponent: 65537 (0x10001)
        X509v3 extensions:
            X509v3 Subject Key Identifier: 
                6E:E8:34:6F:3B:58:B9:3D:43:42:4C:A5:FF:18:98:39:57:3D:6A:B7
            X509v3 Authority Key Identifier: 
                keyid:6E:E8:34:6F:3B:58:B9:3D:43:42:4C:A5:FF:18:98:39:57:3D:6A:B7
                DirName:/C=ZZ/O=Fake Org/OU=Hosts/CN=Fake Org Fake CA - 6399d055
                serial:CD:3F:3E:14:B3:D7:F3:02

            X509v3 Basic Constraints: 
                CA:TRUE
    Signature Algorithm: sha256WithRSAEncryption
         1f:8b:53:8a:e9:1f:7f:a8:3a:82:1a:e5:01:69:50:6e:05:92:
         d3:66:69:83:b4:44:20:7a:f4:56:ca:18:41:e5:34:6b:06:c5:
         80:ac:41:1b:ac:83:5a:12:70:b7:fa:18:d1:06:31:60:71:4e:
         19:85:21:31:b1:38:f2:67:05:89:64:5b:6a:88:b1:56:cb:4b:
         7f:e7:7f:c2:3b:35:f9:d3:52:99:8b:e6:5d:c7:eb:0d:41:3e:
         7b:c2:c8:33:0d:f7:c7:73:be:c8:e9:05:6b:d8:01:3e:2f:60:
         08:c5:bb:b1:38:5b:e8:a2:c8:a3:9b:c2:ba:e4:10:87:c2:e2:
         a7:76:66:cd:8b:2c:4d:ed:94:65:dd:39:a6:d0:2c:4f:d5:c0:
         4b:0f:50:51:f8:a4:12:43:fd:08:98:ae:e0:3c:ea:60:23:18:
         5e:97:34:e2:f3:48:73:67:e4:27:d8:29:8d:3c:2e:0c:81:36:
         2b:f8:a2:4a:73:ca:c0:36:ea:ec:33:d7:30:93:14:b5:73:13:
         fd:c2:7d:31:96:ae:90:9b:fe:12:7a:f0:cc:b1:69:a1:d4:e8:
         a5:95:f8:39:64:1e:e2:9b:12:82:5a:75:99:95:07:bb:3d:6c:
         de:33:6a:67:61:30:ff:f4:d5:60:b3:f2:0a:7b:37:30:26:3c:
         45:55:0f:dd
-----BEGIN CERTIFICATE-----
MIID6TCCAtGgAwIBAgIJAM0/PhSz1/MCMA0GCSqGSIb3DQEBCwUAMFYxCzAJBgNV
BAYTAlpaMREwDwYDVQQKEwhGYWtlIE9yZzEOMAwGA1UECxMFSG9zdHMxJDAiBgNV
BAMTG0Zha2UgT3JnIEZha2UgQ0EgLSA2Mzk5ZDA1NTAeFw0xOTAxMTYxOTIwNDZa
Fw0yMjAxMTUxOTIwNDZaMFYxCzAJBgNVBAYTAlpaMREwDwYDVQQKEwhGYWtlIE9y
ZzEOMAwGA1UECxMFSG9zdHMxJDAiBgNVBAMTG0Zha2UgT3JnIEZha2UgQ0EgLSA2
Mzk5ZDA1NTCCASIwDQYJKoZIhvcNAQEBBQADggEPADCCAQoCggEBANi4sQ/t/5c4
96TMy/DFI2wewvGRoyJ2vFGrQ6iJNmOYZTgCN0R3u96oUV22HJ+aKMArNgG8VmIV
0shFi6rZIS6RgzikeFgPIVThRtLAB1LMR9dWvzXTYXyQD2qs2fsP2k40LjvxQUva
L/49aryv30LUorJpnbxOd/ABnzhF1CmXOoB4XmtETjkPsPTIBo8oKEDjZGnklcmg
VZAXYTZtakNRfZUbwV5ejDzsyoHPxAP323LHPxoq4VjVSK7UtniXzyoArW6pryYt
e/BeWEiSjlHkQYuOApeJPHHJrHUERQ9Pt7Eoq/XyRc5+i6Z1aZhAItF40bvuY3MZ
0APCeIzIkOsCAwEAAaOBuTCBtjAdBgNVHQ4EFgQUbug0bztYuT1DQkyl/xiYOVc9
arcwgYYGA1UdIwR/MH2AFG7oNG87WLk9Q0JMpf8YmDlXPWq3oVqkWDBWMQswCQYD
VQQGEwJaWjERMA8GA1UEChMIRmFrZSBPcmcxDjAMBgNVBAsTBUhvc3RzMSQwIgYD
VQQDExtGYWtlIE9yZyBGYWtlIENBIC0gNjM5OWQwNTWCCQDNPz4Us9fzAjAMBgNV
HRMEBTADAQH/MA0GCSqGSIb3DQEBCwUAA4IBAQAfi1OK6R9/qDqCGuUBaVBuBZLT
ZmmDtEQgevRWyhhB5TRrBsWArEEbrINaEnC3+hjRBjFgcU4ZhSExsTjyZwWJZFtq
iLFWy0t/53/COzX501KZi+Zdx+sNQT57wsgzDffHc77I6QVr2AE+L2AIxbuxOFvo
osijm8K65BCHwuKndmbNiyxN7ZRl3Tmm0CxP1cBLD1BR+KQSQ/0ImK7gPOpgIxhe
lzTi80hzZ+Qn2CmNPC4MgTYr+KJKc8rANursM9cwkxS1cxP9wn0xlq6Qm/4SevDM
sWmh1Oillfg5ZB7imxKCWnWZlQe7PWzeM2pnYTD/9NVgs/IKezcwJjxFVQ/d
-----END CERTIFICATE-----
-----BEGIN CERTIFICATE-----
MIID6TCCAtGgAwIBAgIJAITtOvzMDRI+MA0GCSqGSIb3DQEBCwUAMFYxCzAJBgNV
BAYTAlpaMREwDwYDVQQKEwhGYWtlIE9yZzEOMAwGA1UECxMFSG9zdHMxJDAiBgNV
BAMTG0Zha2UgT3JnIEZha2UgQ0EgLSBlODkzMjllYzAeFw0xOTAxMjExNDU0MTha
Fw0yMjAxMjAxNDU0MThaMFYxCzAJBgNVBAYTAlpaMREwDwYDVQQKEwhGYWtlIE9y
ZzEOMAwGA1UECxMFSG9zdHMxJDAiBgNVBAMTG0Zha2UgT3JnIEZha2UgQ0EgLSBl
ODkzMjllYzCCASIwDQYJKoZIhvcNAQEBBQADggEPADCCAQoCggEBAJXTYWE+8WAx
jUC8NVezdAtup4hTVngE7AKICvLqOmBD+e2Y9bpRHm1g+p25RdndQdQyOhOtUvHt
sqJldJijSxTMl9KGKKzi48Wx5WKRKxnFOVVmnPRVkz1zEC9Sb9Gr45YwoVNrqm1h
layiQTuBghl6ed469EzWMdm32fVc7BztFKPNb5kqU8w2b2C/zOlIzaZvHw4V7bEq
8Z1kO8KFWNx27tdBYC7NFF6wGTc1PucwFp+NZStNoyHPLLgK0ZDfXLYTzwNNwn8N
gbQsBnlutaq2UbXC9h4KuuhJAEzHAt8NXYtCDLUw217xv8kxqH3YQTZ74MuPTlD8
q1kE64gpECECAwEAAaOBuTCBtjAdBgNVHQ4EFgQUbYiawtKlVAtT/rZEI35D0VR4
nEUwgYYGA1UdIwR/MH2AFG2ImsLSpVQLU/62RCN+Q9FUeJxFoVqkWDBWMQswCQYD
VQQGEwJaWjERMA8GA1UEChMIRmFrZSBPcmcxDjAMBgNVBAsTBUhvc3RzMSQwIgYD
VQQDExtGYWtlIE9yZyBGYWtlIENBIC0gZTg5MzI5ZWOCCQCE7Tr8zA0SPjAMBgNV
HRMEBTADAQH/MA0GCSqGSIb3DQEBCwUAA4IBAQAA58h/pO367kLNfAHSxJZ+857E
6xgyQvEyycezjTvcnYQWqdpGTbKME0USv+zyyTNtz0JaTpwi1/WcOZfRc2zQBoG5
YHNHWtLj15O2WfxPOKRB1lLep96LWbk4wZdObOBi1EP51gtXIXWqeezLcjHzhFNE
odkR8hSlANn6Y9lwWORWe1ehG9+0v/aT9nq8j5YtSzIs1l7JAHVgzIHDDKxNUoFo
aQsEwGrt0qEpRPu9etCLNw80W9x9XdtJZflEnfSlOukgyv5Y7luT9bM+o80fVOYE
nL2Dpd4Hw+gDTXbpppbBwT9Cclx3OFvhI8AMq3Kmc0LQTUk6nBXinAvFtFeM
-----END CERTIFICATE-----
