Certificate:
    Data:
        Version: 3 (0x2)
        Serial Number:
            cd:3f:3e:14:b3:d7:f3:02
    Signature Algorithm: sha256WithRSAEncryption
        Issuer: C=ZZ, O=Fake Org, OU=Hosts, CN=Fake Org Fake CA - 6399d055
        Validity
            Not Before: Jan 16 19:20:46 2019 GMT
            Not After : Jan 15 19:20:46 2022 GMT
        Subject: C=ZZ, O=Fake Org, OU=Hosts, CN=Fake Org Fake CA - 6399d055
        Subject Public Key Info:
            Public Key Algorithm: rsaEncryption
                Public-Key: (2048 bit)
                Modulus:
                    00:d8:b8:b1:0f:ed:ff:97:38:f7:a4:cc:cb:f0:c5:
                    23:6c:1e:c2:f1:91:a3:22:76:bc:51:ab:43:a8:89:
                    36:63:98:65:38:02:37:44:77:bb:de:a8:51:5d:b6:
                    1c:9f:9a:28:c0:2b:36:01:bc:56:62:15:d2:c8:45:
                    8b:aa:d9:21:2e:91:83:38:a4:78:58:0f:21:54:e1:
                    46:d2:c0:07:52:cc:47:d7:56:bf:35:d3:61:7c:90:
                    0f:6a:ac:d9:fb:0f:da:4e:34:2e:3b:f1:41:4b:da:
                    2f:fe:3d:6a:bc:af:df:42:d4:a2:b2:69:9d:bc:4e:
                    77:f0:01:9f:38:45:d4:29:97:3a:80:78:5e:6b:44:
                    4e:39:0f:b0:f4:c8:06:8f:28:28:40:e3:64:69:e4:
                    95:c9:a0:55:90:17:61:36:6d:6a:43:51:7d:95:1b:
                    c1:5e:5e:8c:3c:ec:ca:81:cf:c4:03:f7:db:72:c7:
                    3f:1a:2a:e1:58:d5:48:ae:d4:b6:78:97:cf:2a:00:
                    ad:6e:a9:af:26:2d:7b:f0:5e:58:48:92:8e:51:e4:
                    41:8b:8e:02:97:89:3c:71:c9:ac:75:04:45:0f:4f:
                    b7:b1:28:ab:f5:f2:45:ce:7e:8b:a6:75:69:98:40:
                    22:d1:78:d1:bb:ee:63:73:19:d0:03:c2:78:8c:c8:
                    90:eb
                Exponent: 65537 (0x10001)
        X509v3 extensions:
            X509v3 Subject Key Identifier: 
                6E:E8:34:6F:3B:58:B9:3D:43:42:4C:A5:FF:18:98:39:57:3D:6A:B7
            X509v3 Authority Key Identifier: 
                keyid:6E:E8:34:6F:3B:58:B9:3D:43:42:4C:A5:FF:18:98:39:57:3D:6A:B7
                DirName:/C=ZZ/O=Fake Org/OU=Hosts/CN=Fake Org Fake CA - 6399d055
                serial:CD:3F:3E:14:B3:D7:F3:02

            X509v3 Basic Constraints: 
                CA:TRUE
    Signature Algorithm: sha256WithRSAEncryption
         1f:8b:53:8a:e9:1f:7f:a8:3a:82:1a:e5:01:69:50:6e:05:92:
         d3:66:69:83:b4:44:20:7a:f4:56:ca:18:41:e5:34:6b:06:c5:
         80:ac:41:1b:ac:83:5a:12:70:b7:fa:18:d1:06:31:60:71:4e:
         19:85:21:31:b1:38:f2:67:05:89:64:5b:6a:88:b1:56:cb:4b:
         7f:e7:7f:c2:3b:35:f9:d3:52:99:8b:e6:5d:c7:eb:0d:41:3e:
         7b:c2:c8:33:0d:f7:c7:73:be:c8:e9:05:6b:d8:01:3e:2f:60:
         08:c5:bb:b1:38:5b:e8:a2:c8:a3:9b:c2:ba:e4:10:87:c2:e2:
         a7:76:66:cd:8b:2c:4d:ed:94:65:dd:39:a6:d0:2c:4f:d5:c0:
         4b:0f:50:51:f8:a4:12:43:fd:08:98:ae:e0:3c:ea:60:23:18:
         5e:97:34:e2:f3:48:73:67:e4:27:d8:29:8d:3c:2e:0c:81:36:
         2b:f8:a2:4a:73:ca:c0:36:ea:ec:33:d7:30:93:14:b5:73:13:
         fd:c2:7d:31:96:ae:90:9b:fe:12:7a:f0:cc:b1:69:a1:d4:e8:
         a5:95:f8:39:64:1e:e2:9b:12:82:5a:75:99:95:07:bb:3d:6c:
         de:33:6a:67:61:30:ff:f4:d5:60:b3:f2:0a:7b:37:30:26:3c:
         45:55:0f:dd
-----BEGIN CERTIFICATE-----
MIID6TCCAtGgAwIBAgIJAM0/PhSz1/MCMA0GCSqGSIb3DQEBCwUAMFYxCzAJBgNV
BAYTAlpaMREwDwYDVQQKEwhGYWtlIE9yZzEOMAwGA1UECxMFSG9zdHMxJDAiBgNV
BAMTG0Zha2UgT3JnIEZha2UgQ0EgLSA2Mzk5ZDA1NTAeFw0xOTAxMTYxOTIwNDZa
Fw0yMjAxMTUxOTIwNDZaMFYxCzAJBgNVBAYTAlpaMREwDwYDVQQKEwhGYWtlIE9y
ZzEOMAwGA1UECxMFSG9zdHMxJDAiBgNVBAMTG0Zha2UgT3JnIEZha2UgQ0EgLSA2
Mzk5ZDA1NTCCASIwDQYJKoZIhvcNAQEBBQADggEPADCCAQoCggEBANi4sQ/t/5c4
96TMy/DFI2wewvGRoyJ2vFGrQ6iJNmOYZTgCN0R3u96oUV22HJ+aKMArNgG8VmIV
0shFi6rZIS6RgzikeFgPIVThRtLAB1LMR9dWvzXTYXyQD2qs2fsP2k40LjvxQUva
L/49aryv30LUorJpnbxOd/ABnzhF1CmXOoB4XmtETjkPsPTIBo8oKEDjZGnklcmg
VZAXYTZtakNRfZUbwV5ejDzsyoHPxAP323LHPxoq4VjVSK7UtniXzyoArW6pryYt
e/BeWEiSjlHkQYuOApeJPHHJrHUERQ9Pt7Eoq/XyRc5+i6Z1aZhAItF40bvuY3MZ
0APCeIzIkOsCAwEAAaOBuTCBtjAdBgNVHQ4EFgQUbug0bztYuT1DQkyl/xiYOVc9
arcwgYYGA1UdIwR/MH2AFG7oNG87WLk9Q0JMpf8YmDlXPWq3oVqkWDBWMQswCQYD
VQQGEwJaWjERMA8GA1UEChMIRmFrZSBPcmcxDjAMBgNVBAsTBUhvc3RzMSQwIgYD
VQQDExtGYWtlIE9yZyBGYWtlIENBIC0gNjM5OWQwNTWCCQDNPz4Us9fzAjAMBgNV
HRMEBTADAQH/MA0GCSqGSIb3DQEBCwUAA4IBAQAfi1OK6R9/qDqCGuUBaVBuBZLT
ZmmDtEQgevRWyhhB5TRrBsWArEEbrINaEnC3+hjRBjFgcU4ZhSExsTjyZwWJZFtq
iLFWy0t/53/COzX501KZi+Zdx+sNQT57wsgzDffHc77I6QVr2AE+L2AIxbuxOFvo
osijm8K65BCHwuKndmbNiyxN7ZRl3Tmm0CxP1cBLD1BR+KQSQ/0ImK7gPOpgIxhe
lzTi80hzZ+Qn2CmNPC4MgTYr+KJKc8rANursM9cwkxS1cxP9wn0xlq6Qm/4SevDM
sWmh1Oillfg5ZB7imxKCWnWZlQe7PWzeM2pnYTD/9NVgs/IKezcwJjxFVQ/d
-----END CERTIFICATE-----
